target datalayout = "e-m:e-p270:32:32-p271:32:32-p272:64:64-i64:64-i128:128-f80:128-n8:16:32:64-S128"
target triple = "x86_64-pc-linux-gnu"

@proto_register_finger.ett = internal global [1 x ptr] [ptr @ett_finger], align 8
@.str.15 = private unnamed_addr constant [7 x i8] c"finger\00", align 1
@.str.16 = private unnamed_addr constant [7 x i8] c"FINGER\00", align 1
@proto_finger = internal global i32 0, align 4
@finger_handle = internal global ptr null, align 8

; Function Attrs: nounwind uwtable
define hidden void @proto_register_finger() #0 {
  %1 = alloca ptr, align 8
  %2 = call i32 @proto_register_protocol(ptr noundef @.str.15, ptr noundef @.str.16, ptr noundef @.str.15)
  store i32 %2, ptr @proto_finger, align 4
  %3 = load i32, ptr @proto_finger, align 4
  %4 = call ptr @register_dissector(ptr noundef @.str.15, ptr noundef @dissect_finger, i32 noundef %3)
  store ptr %4, ptr @finger_handle, align 8
  %5 = load i32, ptr @proto_finger, align 4
  call void @proto_register_field_array(i32 noundef %5, ptr noundef @proto_register_finger.hf, i32 noundef 5)
  call void @proto_register_subtree_array(ptr noundef @proto_register_finger.ett, i32 noundef 1)
  %6 = load i32, ptr @proto_finger, align 4
  %7 = call ptr @expert_register_protocol(i32 noundef %6)
  store ptr %7, ptr %1, align 8
  %8 = load ptr, ptr %1, align 8
  call void @expert_register_field_array(ptr noundef %8, ptr noundef @proto_register_finger.ei, i32 noundef 1)
  ret void
}