; Function Attrs: nounwind uwtable
define hidden void @proto_register_finger() local_unnamed_addr #0 {
  %1 = tail call i32 @proto_register_protocol(ptr noundef nonnull @.str.15, ptr noundef nonnull @.str.16, ptr noundef nonnull @.str.15) #3
  store i32 %1, ptr @proto_finger, align 4
  %2 = tail call ptr @register_dissector(ptr noundef nonnull @.str.15, ptr noundef nonnull @dissect_finger, i32 noundef %1) #3
  store ptr %2, ptr @finger_handle, align 8
  %3 = load i32, ptr @proto_finger, align 4
  tail call void @proto_register_field_array(i32 noundef %3, ptr noundef nonnull @proto_register_finger.hf, i32 noundef 5) #3
  tail call void @proto_register_subtree_array(ptr noundef nonnull @proto_register_finger.ett, i32 noundef 1) #3
  %4 = load i32, ptr @proto_finger, align 4
  %5 = tail call ptr @expert_register_protocol(i32 noundef %4) #3
  tail call void @expert_register_field_array(ptr noundef %5, ptr noundef nonnull @proto_register_finger.ei, i32 noundef 1) #3
  ret void
}